; Function Attrs: mustprogress uwtable
define dso_local noundef i32 @_ZN2cm11uv_loop_ptr4initEPv(ptr noundef nonnull align 8 dereferenceable(16) %0, ptr noundef %1) local_unnamed_addr #0 align 2 personality ptr @__gxx_personality_v0 {
  store ptr null, ptr %0, align 8
  %3 = getelementptr inbounds i8, ptr %0, i64 8
  %4 = load ptr, ptr %3, align 8
  store ptr null, ptr %3, align 8
  %.not.i.i.i.i = icmp eq ptr %4, null
  br i1 %.not.i.i.i.i, label %_ZN2cm11uv_loop_ptr5resetEv.exit, label %5

5:                                                ; preds = %2
  %6 = getelementptr inbounds i8, ptr %4, i64 8
  %7 = load atomic i64, ptr %6 acquire, align 8
  %8 = icmp eq i64 %7, 4294967297
  %9 = trunc i64 %7 to i32
  br i1 %8, label %10, label %15

10:                                               ; preds = %5
  store i32 0, ptr %6, align 8
  %11 = getelementptr inbounds i8, ptr %4, i64 12
  store i32 0, ptr %11, align 4
  %12 = load ptr, ptr %4, align 8
  %13 = getelementptr inbounds i8, ptr %12, i64 16
  %14 = load ptr, ptr %13, align 8
  tail call void %14(ptr noundef nonnull align 8 dereferenceable(16) %4) #16
  br label %_ZNSt16_Sp_counted_baseILN9__gnu_cxx12_Lock_policyE2EE24_M_release_last_use_coldEv.exit.sink.split.i.i.i.i.i

15:                                               ; preds = %5
  %16 = load i8, ptr @__libc_single_threaded, align 1
  %.not.i.i.i.i.i = icmp eq i8 %16, 0
  br i1 %.not.i.i.i.i.i, label %19, label %17

17:                                               ; preds = %15
  %18 = add nsw i32 %9, -1
  store i32 %18, ptr %6, align 4
  br label %21

19:                                               ; preds = %15
  %20 = atomicrmw volatile add ptr %6, i32 -1 acq_rel, align 4
  br label %21

21:                                               ; preds = %19, %17
  %.0.i.i.i.i.i = phi i32 [ %9, %17 ], [ %20, %19 ]
  %22 = icmp eq i32 %.0.i.i.i.i.i, 1
  br i1 %22, label %23, label %_ZN2cm11uv_loop_ptr5resetEv.exit

23:                                               ; preds = %21
  %24 = load ptr, ptr %4, align 8
  %25 = getelementptr inbounds i8, ptr %24, i64 16
  %26 = load ptr, ptr %25, align 8
  tail call void %26(ptr noundef nonnull align 8 dereferenceable(16) %4) #16
  %27 = getelementptr inbounds i8, ptr %4, i64 12
  %28 = load i8, ptr @__libc_single_threaded, align 1
  %.not.i.i.i.i.i.i.i = icmp eq i8 %28, 0
  br i1 %.not.i.i.i.i.i.i.i, label %32, label %29

29:                                               ; preds = %23
  %30 = load i32, ptr %27, align 4
  %31 = add nsw i32 %30, -1
  store i32 %31, ptr %27, align 4
  br label %34

32:                                               ; preds = %23
  %33 = atomicrmw volatile add ptr %27, i32 -1 acq_rel, align 4
  br label %34

34:                                               ; preds = %32, %29
  %.0.i.i.i.i.i.i.i = phi i32 [ %30, %29 ], [ %33, %32 ]
  %35 = icmp eq i32 %.0.i.i.i.i.i.i.i, 1
  br i1 %35, label %_ZNSt16_Sp_counted_baseILN9__gnu_cxx12_Lock_policyE2EE24_M_release_last_use_coldEv.exit.sink.split.i.i.i.i.i, label %_ZN2cm11uv_loop_ptr5resetEv.exit

_ZNSt16_Sp_counted_baseILN9__gnu_cxx12_Lock_policyE2EE24_M_release_last_use_coldEv.exit.sink.split.i.i.i.i.i: ; preds = %34, %10
  %36 = load ptr, ptr %4, align 8
  %37 = getelementptr inbounds i8, ptr %36, i64 24
  %38 = load ptr, ptr %37, align 8
  tail call void %38(ptr noundef nonnull align 8 dereferenceable(16) %4) #16
  br label %_ZN2cm11uv_loop_ptr5resetEv.exit

_ZN2cm11uv_loop_ptr5resetEv.exit:                 ; preds = %2, %21, %34, %_ZNSt16_Sp_counted_baseILN9__gnu_cxx12_Lock_policyE2EE24_M_release_last_use_coldEv.exit.sink.split.i.i.i.i.i
  %39 = tail call noalias dereferenceable_or_null(848) ptr @calloc(i64 noundef 1, i64 noundef 848) #17
  tail call void @_ZNSt12__shared_ptrI9uv_loop_sLN9__gnu_cxx12_Lock_policyE2EE5resetIS0_N2cm15uv_loop_deleterEEENSt9enable_ifIXsr21__sp_is_constructibleIS0_T_EE5valueEvE4typeEPS8_T0_(ptr noundef nonnull align 8 dereferenceable(16) %0, ptr noundef %39)
  %40 = load ptr, ptr %0, align 8
  store ptr %1, ptr %40, align 8
  %41 = load ptr, ptr %0, align 8
  %42 = tail call i32 @uv_loop_init(ptr noundef %41)
  ret i32 %42
}